---
triple:          'arm64-apple-darwin'
binary-path:     "baekjoon_1918_후위표기식"
relocations:
  - { offsetInCU: 0x4C71, offset: 0x4C71, size: 0x8, addend: 0x0, symName: __ZNSt3__124__put_character_sequenceB7v160006IcNS_11char_traitsIcEEEERNS_13basic_ostreamIT_T0_EES7_PKS4_m, symObjAddr: 0x10C9C, symBinAddr: 0x1000115F4, symSize: 0x744 }
  - { offsetInCU: 0x7566, offset: 0x7566, size: 0x8, addend: 0x0, symName: __ZNSt3__1rsB7v160006IcNS_11char_traitsIcEENS_9allocatorIcEEEERNS_13basic_istreamIT_T0_EES9_RNS_12basic_stringIS6_S7_T1_EE, symObjAddr: 0x1258, symBinAddr: 0x100001BB0, symSize: 0x9C4 }
  - { offsetInCU: 0x763F, offset: 0x763F, size: 0x8, addend: 0x0, symName: __ZNSt3__1lsB7v160006IcNS_11char_traitsIcEENS_9allocatorIcEEEERNS_13basic_ostreamIT_T0_EES9_RKNS_12basic_stringIS6_S7_T1_EE, symObjAddr: 0x1C1C, symBinAddr: 0x100002574, symSize: 0x4C }
  - { offsetInCU: 0x7697, offset: 0x7697, size: 0x8, addend: 0x0, symName: __ZNSt3__14endlB7v160006IcNS_11char_traitsIcEEEERNS_13basic_ostreamIT_T0_EES7_, symObjAddr: 0x1C94, symBinAddr: 0x1000025EC, symSize: 0xD4 }
  - { offsetInCU: 0x76D7, offset: 0x76D7, size: 0x8, addend: 0x0, symName: __ZNSt3__1neB7v160006ERKNS_16__deque_iteratorIcPcRcPS1_lLl4096EEES6_, symObjAddr: 0x2B10, symBinAddr: 0x100003468, symSize: 0x34 }
  - { offsetInCU: 0x7714, offset: 0x7714, size: 0x8, addend: 0x0, symName: __ZNSt3__1eqB7v160006ERKNS_16__deque_iteratorIcPcRcPS1_lLl4096EEES6_, symObjAddr: 0x31F4, symBinAddr: 0x100003B4C, symSize: 0xC0 }
  - { offsetInCU: 0x7751, offset: 0x7751, size: 0x8, addend: 0x0, symName: __ZNSt3__119__libcpp_deallocateB7v160006EPvmm, symObjAddr: 0x33EC, symBinAddr: 0x100003D44, symSize: 0x60 }
  - { offsetInCU: 0x77B6, offset: 0x77B6, size: 0x8, addend: 0x0, symName: __ZNSt3__124__is_overaligned_for_newB7v160006Em, symObjAddr: 0x344C, symBinAddr: 0x100003DA4, symSize: 0x20 }
  - { offsetInCU: 0x77E4, offset: 0x77E4, size: 0x8, addend: 0x0, symName: __ZNSt3__127__do_deallocate_handle_sizeB7v160006IJSt11align_val_tEEEvPvmDpT_, symObjAddr: 0x346C, symBinAddr: 0x100003DC4, symSize: 0x30 }
  - { offsetInCU: 0x7837, offset: 0x7837, size: 0x8, addend: 0x0, symName: __ZNSt3__127__do_deallocate_handle_sizeB7v160006IJEEEvPvmDpT_, symObjAddr: 0x349C, symBinAddr: 0x100003DF4, symSize: 0x28 }
  - { offsetInCU: 0x7875, offset: 0x7875, size: 0x8, addend: 0x0, symName: __ZNSt3__124__libcpp_operator_deleteB7v160006IJPvSt11align_val_tEEEvDpT_, symObjAddr: 0x34C4, symBinAddr: 0x100003E1C, symSize: 0x2C }
  - { offsetInCU: 0x78BE, offset: 0x78BE, size: 0x8, addend: 0x0, symName: __ZNSt3__124__libcpp_operator_deleteB7v160006IJPvEEEvDpT_, symObjAddr: 0x34F0, symBinAddr: 0x100003E48, symSize: 0x24 }
  - { offsetInCU: 0x78F3, offset: 0x78F3, size: 0x8, addend: 0x0, symName: __ZNSt3__112__to_addressB7v160006IPcEEPT_S3_, symObjAddr: 0x3934, symBinAddr: 0x10000428C, symSize: 0x14 }
  - { offsetInCU: 0x7928, offset: 0x7928, size: 0x8, addend: 0x0, symName: __ZNSt3__119__debug_db_insert_cB7v160006INS_12basic_stringIcNS_11char_traitsIcEENS_9allocatorIcEEEEEEvPT_, symObjAddr: 0x3C94, symBinAddr: 0x1000045EC, symSize: 0x10 }
  - { offsetInCU: 0x798C, offset: 0x798C, size: 0x8, addend: 0x0, symName: __ZNSt3__13maxB7v160006ImEERKT_S3_S3_, symObjAddr: 0x79D8, symBinAddr: 0x100008330, symSize: 0x2C }
  - { offsetInCU: 0x7E28, offset: 0x7E28, size: 0x8, addend: 0x0, symName: __ZNSt3__14swapB7v160006IPPcEENS_9enable_ifIXaasr21is_move_constructibleIT_EE5valuesr18is_move_assignableIS4_EE5valueEvE4typeERS4_S7_, symObjAddr: 0x9060, symBinAddr: 0x1000099B8, symSize: 0x134 }
  - { offsetInCU: 0x7E79, offset: 0x7E79, size: 0x8, addend: 0x0, symName: __ZNSt3__14moveB7v160006IPPcS2_EET0_T_S4_S3_, symObjAddr: 0x923C, symBinAddr: 0x100009B94, symSize: 0x26C }
  - { offsetInCU: 0x7EF2, offset: 0x7EF2, size: 0x8, addend: 0x0, symName: __ZNSt3__16__moveB7v160006INS_17_ClassicAlgPolicyEPPcS3_S3_EENS_4pairIT0_T2_EES5_T1_S6_, symObjAddr: 0x9B10, symBinAddr: 0x10000A468, symSize: 0x22C }
  - { offsetInCU: 0x7F61, offset: 0x7F61, size: 0x8, addend: 0x0, symName: __ZNSt3__123__dispatch_copy_or_moveB7v160006INS_17_ClassicAlgPolicyENS_11__move_loopIS1_EENS_14__move_trivialEPPcS6_S6_EENS_4pairIT2_T4_EES8_T3_S9_, symObjAddr: 0x9D3C, symBinAddr: 0x10000A694, symSize: 0x22C }
  - { offsetInCU: 0x7FE2, offset: 0x7FE2, size: 0x8, addend: 0x0, symName: __ZNSt3__121__unwrap_and_dispatchB7v160006INS_10__overloadINS_11__move_loopINS_17_ClassicAlgPolicyEEENS_14__move_trivialEEEPPcS8_S8_Li0EEENS_4pairIT0_T2_EESA_T1_SB_, symObjAddr: 0x9F68, symBinAddr: 0x10000A8C0, symSize: 0x5A4 }
  - { offsetInCU: 0x807B, offset: 0x807B, size: 0x8, addend: 0x0, symName: __ZNSt3__114__unwrap_rangeB7v160006IPPcS2_EENS_4pairIT0_S4_EET_S6_, symObjAddr: 0xA50C, symBinAddr: 0x10000AE64, symSize: 0x350 }
  - { offsetInCU: 0x8241, offset: 0x8241, size: 0x8, addend: 0x0, symName: __ZNSt3__113__unwrap_iterB7v160006IPPcNS_18__unwrap_iter_implIS2_Lb1EEELi0EEEDTclsrT0_8__unwrapclsr3stdE7declvalIT_EEEES6_, symObjAddr: 0xAA8C, symBinAddr: 0x10000B3E4, symSize: 0x24 }
  - { offsetInCU: 0x8285, offset: 0x8285, size: 0x8, addend: 0x0, symName: __ZNSt3__19make_pairB7v160006IPPcS2_EENS_4pairINS_18__unwrap_ref_decayIT_E4typeENS4_IT0_E4typeEEEOS5_OS8_, symObjAddr: 0xAAB0, symBinAddr: 0x10000B408, symSize: 0x20C }
  - { offsetInCU: 0x82D6, offset: 0x82D6, size: 0x8, addend: 0x0, symName: __ZNSt3__114__rewrap_rangeB7v160006IPPcS2_EET_S3_T0_, symObjAddr: 0xACBC, symBinAddr: 0x10000B614, symSize: 0x2C }
  - { offsetInCU: 0x8322, offset: 0x8322, size: 0x8, addend: 0x0, symName: __ZNSt3__113__rewrap_iterB7v160006IPPcS2_NS_18__unwrap_iter_implIS2_Lb1EEEEET_S5_T0_, symObjAddr: 0xACE8, symBinAddr: 0x10000B640, symSize: 0x48 }
  - { offsetInCU: 0x8377, offset: 0x8377, size: 0x8, addend: 0x0, symName: __ZNSt3__119__copy_trivial_implB7v160006IPcS1_EENS_4pairIPT_PT0_EES4_S4_S6_, symObjAddr: 0xAD30, symBinAddr: 0x10000B688, symSize: 0x3B8 }
  - { offsetInCU: 0x83E6, offset: 0x83E6, size: 0x8, addend: 0x0, symName: __ZNSt3__19make_pairB7v160006IRPPcS2_EENS_4pairINS_18__unwrap_ref_decayIT_E4typeENS5_IT0_E4typeEEEOS6_OS9_, symObjAddr: 0xB0E8, symBinAddr: 0x10000BA40, symSize: 0x20C }
  - { offsetInCU: 0x848A, offset: 0x848A, size: 0x8, addend: 0x0, symName: __ZNSt3__18distanceB7v160006INS_13move_iteratorIPPcEEEENS_15iterator_traitsIT_E15difference_typeES6_S6_, symObjAddr: 0xB650, symBinAddr: 0x10000BFA8, symSize: 0x350 }
  - { offsetInCU: 0x84D5, offset: 0x84D5, size: 0x8, addend: 0x0, symName: __ZNSt3__110__distanceB7v160006INS_13move_iteratorIPPcEEEENS_15iterator_traitsIT_E15difference_typeES6_S6_NS_26random_access_iterator_tagE, symObjAddr: 0xBB2C, symBinAddr: 0x10000C484, symSize: 0x274 }
  - { offsetInCU: 0x852B, offset: 0x852B, size: 0x8, addend: 0x0, symName: __ZNSt3__1miB7v160006IPPcS2_EEDTmicldtfp_4baseEcldtfp0_4baseEERKNS_13move_iteratorIT_EERKNS4_IT0_EE, symObjAddr: 0xBDA0, symBinAddr: 0x10000C6F8, symSize: 0x48 }
  - { offsetInCU: 0x857A, offset: 0x857A, size: 0x8, addend: 0x0, symName: __ZNSt3__117__libcpp_allocateB7v160006Emm, symObjAddr: 0xC3C4, symBinAddr: 0x10000CD1C, symSize: 0x60 }
  - { offsetInCU: 0x85D4, offset: 0x85D4, size: 0x8, addend: 0x0, symName: __ZNSt3__121__libcpp_operator_newB7v160006IJmSt11align_val_tEEEPvDpT_, symObjAddr: 0xC438, symBinAddr: 0x10000CD90, symSize: 0x2C }
  - { offsetInCU: 0x8621, offset: 0x8621, size: 0x8, addend: 0x0, symName: __ZNSt3__121__libcpp_operator_newB7v160006IJmEEEPvDpT_, symObjAddr: 0xC464, symBinAddr: 0x10000CDBC, symSize: 0x24 }
  - { offsetInCU: 0x865A, offset: 0x865A, size: 0x8, addend: 0x0, symName: __ZNSt3__113move_backwardB7v160006IPPcS2_EET0_T_S4_S3_, symObjAddr: 0xC488, symBinAddr: 0x10000CDE0, symSize: 0x26C }
  - { offsetInCU: 0x86B7, offset: 0x86B7, size: 0x8, addend: 0x0, symName: __ZNSt3__115__move_backwardB7v160006INS_17_ClassicAlgPolicyEPPcS3_S3_EENS_4pairIT0_T2_EES5_T1_S6_, symObjAddr: 0xC6F4, symBinAddr: 0x10000D04C, symSize: 0x22C }
  - { offsetInCU: 0x8726, offset: 0x8726, size: 0x8, addend: 0x0, symName: __ZNSt3__123__dispatch_copy_or_moveB7v160006INS_17_ClassicAlgPolicyENS_20__move_backward_loopIS1_EENS_23__move_backward_trivialEPPcS6_S6_EENS_4pairIT2_T4_EES8_T3_S9_, symObjAddr: 0xC920, symBinAddr: 0x10000D278, symSize: 0x22C }
  - { offsetInCU: 0x87A7, offset: 0x87A7, size: 0x8, addend: 0x0, symName: __ZNSt3__121__unwrap_and_dispatchB7v160006INS_10__overloadINS_20__move_backward_loopINS_17_ClassicAlgPolicyEEENS_23__move_backward_trivialEEEPPcS8_S8_Li0EEENS_4pairIT0_T2_EESA_T1_SB_, symObjAddr: 0xCB4C, symBinAddr: 0x10000D4A4, symSize: 0x5A4 }
  - { offsetInCU: 0x8886, offset: 0x8886, size: 0x8, addend: 0x0, symName: __ZNSt3__128__copy_backward_trivial_implB7v160006IPcS1_EENS_4pairIPT_PT0_EES4_S4_S6_, symObjAddr: 0xD320, symBinAddr: 0x10000DC78, symSize: 0x3E0 }
  - { offsetInCU: 0x88F8, offset: 0x88F8, size: 0x8, addend: 0x0, symName: __ZNSt3__19make_pairB7v160006IRPPcS3_EENS_4pairINS_18__unwrap_ref_decayIT_E4typeENS5_IT0_E4typeEEEOS6_OS9_, symObjAddr: 0xD700, symBinAddr: 0x10000E058, symSize: 0x20C }
  - { offsetInCU: 0x8949, offset: 0x8949, size: 0x8, addend: 0x0, symName: __ZNSt3__13maxB7v160006ImNS_6__lessImmEEEERKT_S5_S5_T0_, symObjAddr: 0xDA80, symBinAddr: 0x10000E3D8, symSize: 0x1E8 }
  - { offsetInCU: 0x89E4, offset: 0x89E4, size: 0x8, addend: 0x0, symName: __ZNSt3__119__allocate_at_leastB7v160006INS_9allocatorIPcEEEENS_19__allocation_resultINS_16allocator_traitsIT_E7pointerEEERS6_m, symObjAddr: 0xE280, symBinAddr: 0x10000EBD8, symSize: 0x28C }
  - { offsetInCU: 0x8A29, offset: 0x8A29, size: 0x8, addend: 0x0, symName: __ZNSt3__112__to_addressB7v160006IcEEPT_S2_, symObjAddr: 0xF478, symBinAddr: 0x10000FDD0, symSize: 0x14 }
  - { offsetInCU: 0x91DD, offset: 0x91DD, size: 0x8, addend: 0x0, symName: __ZNSt3__19use_facetB7v160006INS_5ctypeIcEEEERKT_RKNS_6localeE, symObjAddr: 0xFF9C, symBinAddr: 0x1000108F4, symSize: 0x2C }
  - { offsetInCU: 0x95BD, offset: 0x95BD, size: 0x8, addend: 0x0, symName: __ZNSt3__125__debug_db_invalidate_allB7v160006INS_12basic_stringIcNS_11char_traitsIcEENS_9allocatorIcEEEEEEvPT_, symObjAddr: 0x107A4, symBinAddr: 0x1000110FC, symSize: 0x10 }
  - { offsetInCU: 0x97DA, offset: 0x97DA, size: 0x8, addend: 0x0, symName: __ZNSt3__116__pad_and_outputB7v160006IcNS_11char_traitsIcEEEENS_19ostreambuf_iteratorIT_T0_EES6_PKS4_S8_S8_RNS_8ios_baseES4_, symObjAddr: 0x11490, symBinAddr: 0x100011DE8, symSize: 0x760 }
  - { offsetInCU: 0x98B7, offset: 0x98B7, size: 0x8, addend: 0x0, symName: __ZNSt3__112__to_addressB7v160006IKcEEPT_S3_, symObjAddr: 0x12658, symBinAddr: 0x100012FB0, symSize: 0x14 }
  - { offsetInCU: 0x9AC6, offset: 0x9AC6, size: 0x8, addend: 0x0, symName: __ZSt28__throw_bad_array_new_lengthB7v160006v, symObjAddr: 0xC38C, symBinAddr: 0x10000CCE4, symSize: 0x38 }
  - { offsetInCU: 0xC665, offset: 0xC665, size: 0x8, addend: 0x0, symName: __Z10precedencec, symObjAddr: 0x0, symBinAddr: 0x100000958, symSize: 0x88 }
  - { offsetInCU: 0xC691, offset: 0xC691, size: 0x8, addend: 0x0, symName: __Z14infixToPostfixNSt3__112basic_stringIcNS_11char_traitsIcEENS_9allocatorIcEEEE, symObjAddr: 0x88, symBinAddr: 0x1000009E0, symSize: 0xBA0 }
  - { offsetInCU: 0xC753, offset: 0xC753, size: 0x8, addend: 0x0, symName: __ZNSt3__15stackIcNS_5dequeIcNS_9allocatorIcEEEEEC1B7v160006Ev, symObjAddr: 0xC28, symBinAddr: 0x100001580, symSize: 0x2C }
  - { offsetInCU: 0xC77D, offset: 0xC77D, size: 0x8, addend: 0x0, symName: __ZNSt3__112basic_stringIcNS_11char_traitsIcEENS_9allocatorIcEEEC1B7v160006Ev, symObjAddr: 0xC54, symBinAddr: 0x1000015AC, symSize: 0x2C }
  - { offsetInCU: 0xC7A7, offset: 0xC7A7, size: 0x8, addend: 0x0, symName: __ZNKSt3__112basic_stringIcNS_11char_traitsIcEENS_9allocatorIcEEE6lengthB7v160006Ev, symObjAddr: 0xC80, symBinAddr: 0x1000015D8, symSize: 0x24 }
  - { offsetInCU: 0xC7CD, offset: 0xC7CD, size: 0x8, addend: 0x0, symName: __ZNSt3__112basic_stringIcNS_11char_traitsIcEENS_9allocatorIcEEEixB7v160006Em, symObjAddr: 0xCA4, symBinAddr: 0x1000015FC, symSize: 0x30 }
  - { offsetInCU: 0xC802, offset: 0xC802, size: 0x8, addend: 0x0, symName: __ZNSt3__112basic_stringIcNS_11char_traitsIcEENS_9allocatorIcEEEpLB7v160006Ec, symObjAddr: 0xCD4, symBinAddr: 0x10000162C, symSize: 0x34 }
  - { offsetInCU: 0xC837, offset: 0xC837, size: 0x8, addend: 0x0, symName: __ZNSt3__15stackIcNS_5dequeIcNS_9allocatorIcEEEEE4pushB7v160006EOc, symObjAddr: 0xD08, symBinAddr: 0x100001660, symSize: 0x2C }
  - { offsetInCU: 0xC86B, offset: 0xC86B, size: 0x8, addend: 0x0, symName: __ZNSt3__15stackIcNS_5dequeIcNS_9allocatorIcEEEEE3topB7v160006Ev, symObjAddr: 0xD34, symBinAddr: 0x10000168C, symSize: 0x24 }
  - { offsetInCU: 0xC891, offset: 0xC891, size: 0x8, addend: 0x0, symName: __ZNSt3__15stackIcNS_5dequeIcNS_9allocatorIcEEEEE3popB7v160006Ev, symObjAddr: 0xD58, symBinAddr: 0x1000016B0, symSize: 0x24 }
  - { offsetInCU: 0xC8B7, offset: 0xC8B7, size: 0x8, addend: 0x0, symName: __ZNKSt3__15stackIcNS_5dequeIcNS_9allocatorIcEEEEE5emptyB7v160006Ev, symObjAddr: 0xD7C, symBinAddr: 0x1000016D4, symSize: 0x28 }
  - { offsetInCU: 0xC8DD, offset: 0xC8DD, size: 0x8, addend: 0x0, symName: __ZNSt3__15stackIcNS_5dequeIcNS_9allocatorIcEEEEE4pushB7v160006ERKc, symObjAddr: 0xDA4, symBinAddr: 0x1000016FC, symSize: 0x2C }
  - { offsetInCU: 0xC911, offset: 0xC911, size: 0x8, addend: 0x0, symName: __ZNSt3__15stackIcNS_5dequeIcNS_9allocatorIcEEEEED1Ev, symObjAddr: 0xDD0, symBinAddr: 0x100001728, symSize: 0x2C }
  - { offsetInCU: 0xC93D, offset: 0xC93D, size: 0x8, addend: 0x0, symName: _main, symObjAddr: 0xDFC, symBinAddr: 0x100001754, symSize: 0x45C }
  - { offsetInCU: 0xC96A, offset: 0xC96A, size: 0x8, addend: 0x0, symName: __ZNSt3__113basic_ostreamIcNS_11char_traitsIcEEElsB7v160006EPFRS3_S4_E, symObjAddr: 0x1C68, symBinAddr: 0x1000025C0, symSize: 0x2C }
  - { offsetInCU: 0xC99E, offset: 0xC99E, size: 0x8, addend: 0x0, symName: __ZNSt3__15stackIcNS_5dequeIcNS_9allocatorIcEEEEED2Ev, symObjAddr: 0x1D68, symBinAddr: 0x1000026C0, symSize: 0x2C }
  - { offsetInCU: 0xC9CA, offset: 0xC9CA, size: 0x8, addend: 0x0, symName: __ZNSt3__15dequeIcNS_9allocatorIcEEED1B7v160006Ev, symObjAddr: 0x1D94, symBinAddr: 0x1000026EC, symSize: 0x2C }
  - { offsetInCU: 0xC9F4, offset: 0xC9F4, size: 0x8, addend: 0x0, symName: __ZNSt3__15dequeIcNS_9allocatorIcEEED2B7v160006Ev, symObjAddr: 0x1DC0, symBinAddr: 0x100002718, symSize: 0xE8 }
  - { offsetInCU: 0xCA4A, offset: 0xCA4A, size: 0x8, addend: 0x0, symName: __ZNSt3__15dequeIcNS_9allocatorIcEEE5clearEv, symObjAddr: 0x1EA8, symBinAddr: 0x100002800, symSize: 0x4D4 }
  - { offsetInCU: 0xCAAF, offset: 0xCAAF, size: 0x8, addend: 0x0, symName: __ZNSt3__114__split_bufferIPcNS_9allocatorIS1_EEE5beginB7v160006Ev, symObjAddr: 0x237C, symBinAddr: 0x100002CD4, symSize: 0x64 }
  - { offsetInCU: 0xCAD5, offset: 0xCAD5, size: 0x8, addend: 0x0, symName: __ZNSt3__114__split_bufferIPcNS_9allocatorIS1_EEE3endB7v160006Ev, symObjAddr: 0x23E0, symBinAddr: 0x100002D38, symSize: 0x64 }
  - { offsetInCU: 0xCAFB, offset: 0xCAFB, size: 0x8, addend: 0x0, symName: __ZNSt3__116allocator_traitsINS_9allocatorIcEEE10deallocateB7v160006ERS2_Pcm, symObjAddr: 0x2444, symBinAddr: 0x100002D9C, symSize: 0x34 }
  - { offsetInCU: 0xCB3D, offset: 0xCB3D, size: 0x8, addend: 0x0, symName: __ZNSt3__15dequeIcNS_9allocatorIcEEE7__allocB7v160006Ev, symObjAddr: 0x2478, symBinAddr: 0x100002DD0, symSize: 0x28 }
  - { offsetInCU: 0xCB63, offset: 0xCB63, size: 0x8, addend: 0x0, symName: __ZNSt3__114__split_bufferIPcNS_9allocatorIS1_EEED1Ev, symObjAddr: 0x24A0, symBinAddr: 0x100002DF8, symSize: 0x2C }
  - { offsetInCU: 0xCB8F, offset: 0xCB8F, size: 0x8, addend: 0x0, symName: __ZNSt3__15dequeIcNS_9allocatorIcEEE5beginB7v160006Ev, symObjAddr: 0x24CC, symBinAddr: 0x100002E24, symSize: 0x344 }
  - { offsetInCU: 0xCBC6, offset: 0xCBC6, size: 0x8, addend: 0x0, symName: __ZNSt3__15dequeIcNS_9allocatorIcEEE3endB7v160006Ev, symObjAddr: 0x2810, symBinAddr: 0x100003168, symSize: 0x300 }
  - { offsetInCU: 0xCC0D, offset: 0xCC0D, size: 0x8, addend: 0x0, symName: __ZNSt3__116allocator_traitsINS_9allocatorIcEEE7destroyB7v160006IcvEEvRS2_PT_, symObjAddr: 0x2B50, symBinAddr: 0x1000034A8, symSize: 0x2C }
  - { offsetInCU: 0xCC4A, offset: 0xCC4A, size: 0x8, addend: 0x0, symName: __ZNKSt3__116__deque_iteratorIcPcRcPS1_lLl4096EEdeB7v160006Ev, symObjAddr: 0x2B7C, symBinAddr: 0x1000034D4, symSize: 0x64 }
  - { offsetInCU: 0xCC70, offset: 0xCC70, size: 0x8, addend: 0x0, symName: __ZNSt3__116__deque_iteratorIcPcRcPS1_lLl4096EEppB7v160006Ev, symObjAddr: 0x2BE0, symBinAddr: 0x100003538, symSize: 0x1F0 }
  - { offsetInCU: 0xCC96, offset: 0xCC96, size: 0x8, addend: 0x0, symName: __ZNSt3__15dequeIcNS_9allocatorIcEEE6__sizeB7v160006Ev, symObjAddr: 0x2DD0, symBinAddr: 0x100003728, symSize: 0x28 }
  - { offsetInCU: 0xCCBC, offset: 0xCCBC, size: 0x8, addend: 0x0, symName: __ZNKSt3__114__split_bufferIPcNS_9allocatorIS1_EEE4sizeB7v160006Ev, symObjAddr: 0x2DF8, symBinAddr: 0x100003750, symSize: 0xB4 }
  - { offsetInCU: 0xCCE2, offset: 0xCCE2, size: 0x8, addend: 0x0, symName: __ZNSt3__114__split_bufferIPcNS_9allocatorIS1_EEE5frontB7v160006Ev, symObjAddr: 0x2EAC, symBinAddr: 0x100003804, symSize: 0x64 }
  - { offsetInCU: 0xCD08, offset: 0xCD08, size: 0x8, addend: 0x0, symName: __ZNSt3__114__split_bufferIPcNS_9allocatorIS1_EEE9pop_frontB7v160006Ev, symObjAddr: 0x2F10, symBinAddr: 0x100003868, symSize: 0x6C }
  - { offsetInCU: 0xCD2E, offset: 0xCD2E, size: 0x8, addend: 0x0, symName: __ZNKSt3__114__split_bufferIPcNS_9allocatorIS1_EEE5emptyB7v160006Ev, symObjAddr: 0x2F7C, symBinAddr: 0x1000038D4, symSize: 0xB4 }
  - { offsetInCU: 0xCD54, offset: 0xCD54, size: 0x8, addend: 0x0, symName: __ZNSt3__116__deque_iteratorIcPcRcPS1_lLl4096EEC1B7v160006ES3_S1_, symObjAddr: 0x3030, symBinAddr: 0x100003988, symSize: 0x3C }
  - { offsetInCU: 0xCD9C, offset: 0xCD9C, size: 0x8, addend: 0x0, symName: __ZNSt3__116__deque_iteratorIcPcRcPS1_lLl4096EEC2B7v160006ES3_S1_, symObjAddr: 0x306C, symBinAddr: 0x1000039C4, symSize: 0xBC }
  - { offsetInCU: 0xCDE4, offset: 0xCDE4, size: 0x8, addend: 0x0, symName: __ZNKSt3__15dequeIcNS_9allocatorIcEEE4sizeB7v160006Ev, symObjAddr: 0x3128, symBinAddr: 0x100003A80, symSize: 0x6C }
  - { offsetInCU: 0xCE0A, offset: 0xCE0A, size: 0x8, addend: 0x0, symName: __ZNKSt3__15dequeIcNS_9allocatorIcEEE6__sizeB7v160006Ev, symObjAddr: 0x3194, symBinAddr: 0x100003AEC, symSize: 0x28 }
  - { offsetInCU: 0xCE30, offset: 0xCE30, size: 0x8, addend: 0x0, symName: __ZNKSt3__117__compressed_pairImNS_9allocatorIcEEE5firstB7v160006Ev, symObjAddr: 0x31BC, symBinAddr: 0x100003B14, symSize: 0x24 }
  - { offsetInCU: 0xCE56, offset: 0xCE56, size: 0x8, addend: 0x0, symName: __ZNKSt3__122__compressed_pair_elemImLi0ELb0EE5__getB7v160006Ev, symObjAddr: 0x31E0, symBinAddr: 0x100003B38, symSize: 0x14 }
  - { offsetInCU: 0xCE7C, offset: 0xCE7C, size: 0x8, addend: 0x0, symName: __ZNSt3__19allocatorIcE7destroyB7v160006EPc, symObjAddr: 0x32B4, symBinAddr: 0x100003C0C, symSize: 0x14 }
  - { offsetInCU: 0xCEB0, offset: 0xCEB0, size: 0x8, addend: 0x0, symName: __ZNSt3__117__compressed_pairImNS_9allocatorIcEEE5firstB7v160006Ev, symObjAddr: 0x32C8, symBinAddr: 0x100003C20, symSize: 0x24 }
  - { offsetInCU: 0xCED6, offset: 0xCED6, size: 0x8, addend: 0x0, symName: __ZNSt3__122__compressed_pair_elemImLi0ELb0EE5__getB7v160006Ev, symObjAddr: 0x32EC, symBinAddr: 0x100003C44, symSize: 0x14 }
  - { offsetInCU: 0xCEFC, offset: 0xCEFC, size: 0x8, addend: 0x0, symName: __ZNSt3__114__split_bufferIPcNS_9allocatorIS1_EEE19__destruct_at_beginB7v160006EPS1_, symObjAddr: 0x3300, symBinAddr: 0x100003C58, symSize: 0x2C }
  - { offsetInCU: 0xCF30, offset: 0xCF30, size: 0x8, addend: 0x0, symName: __ZNSt3__114__split_bufferIPcNS_9allocatorIS1_EEE19__destruct_at_beginEPS1_NS_17integral_constantIbLb1EEE, symObjAddr: 0x332C, symBinAddr: 0x100003C84, symSize: 0x74 }
  - { offsetInCU: 0xCF70, offset: 0xCF70, size: 0x8, addend: 0x0, symName: __ZNSt3__19allocatorIcE10deallocateB7v160006EPcm, symObjAddr: 0x33A0, symBinAddr: 0x100003CF8, symSize: 0x4C }
  - { offsetInCU: 0xCFB2, offset: 0xCFB2, size: 0x8, addend: 0x0, symName: __ZNSt3__117__compressed_pairImNS_9allocatorIcEEE6secondB7v160006Ev, symObjAddr: 0x3514, symBinAddr: 0x100003E6C, symSize: 0x24 }
  - { offsetInCU: 0xCFD8, offset: 0xCFD8, size: 0x8, addend: 0x0, symName: __ZNSt3__122__compressed_pair_elemINS_9allocatorIcEELi1ELb1EE5__getB7v160006Ev, symObjAddr: 0x3538, symBinAddr: 0x100003E90, symSize: 0x14 }
  - { offsetInCU: 0xCFFE, offset: 0xCFFE, size: 0x8, addend: 0x0, symName: __ZNSt3__114__split_bufferIPcNS_9allocatorIS1_EEED2Ev, symObjAddr: 0x354C, symBinAddr: 0x100003EA4, symSize: 0x104 }
  - { offsetInCU: 0xD02A, offset: 0xD02A, size: 0x8, addend: 0x0, symName: __ZNSt3__114__split_bufferIPcNS_9allocatorIS1_EEE5clearB7v160006Ev, symObjAddr: 0x3650, symBinAddr: 0x100003FA8, symSize: 0x68 }
  - { offsetInCU: 0xD050, offset: 0xD050, size: 0x8, addend: 0x0, symName: __ZNSt3__116allocator_traitsINS_9allocatorIPcEEE10deallocateB7v160006ERS3_PS2_m, symObjAddr: 0x36B8, symBinAddr: 0x100004010, symSize: 0x34 }
  - { offsetInCU: 0xD092, offset: 0xD092, size: 0x8, addend: 0x0, symName: __ZNSt3__114__split_bufferIPcNS_9allocatorIS1_EEE7__allocB7v160006Ev, symObjAddr: 0x36EC, symBinAddr: 0x100004044, symSize: 0x28 }
  - { offsetInCU: 0xD0B8, offset: 0xD0B8, size: 0x8, addend: 0x0, symName: __ZNKSt3__114__split_bufferIPcNS_9allocatorIS1_EEE8capacityB7v160006Ev, symObjAddr: 0x3714, symBinAddr: 0x10000406C, symSize: 0xBC }
  - { offsetInCU: 0xD0DE, offset: 0xD0DE, size: 0x8, addend: 0x0, symName: __ZNSt3__114__split_bufferIPcNS_9allocatorIS1_EEE17__destruct_at_endB7v160006EPS1_, symObjAddr: 0x37D0, symBinAddr: 0x100004128, symSize: 0x2C }
  - { offsetInCU: 0xD112, offset: 0xD112, size: 0x8, addend: 0x0, symName: __ZNSt3__114__split_bufferIPcNS_9allocatorIS1_EEE17__destruct_at_endB7v160006EPS1_NS_17integral_constantIbLb0EEE, symObjAddr: 0x37FC, symBinAddr: 0x100004154, symSize: 0x10C }
  - { offsetInCU: 0xD152, offset: 0xD152, size: 0x8, addend: 0x0, symName: __ZNSt3__116allocator_traitsINS_9allocatorIPcEEE7destroyB7v160006IS2_vEEvRS3_PT_, symObjAddr: 0x3908, symBinAddr: 0x100004260, symSize: 0x2C }
  - { offsetInCU: 0xD18F, offset: 0xD18F, size: 0x8, addend: 0x0, symName: __ZNSt3__19allocatorIPcE7destroyB7v160006EPS1_, symObjAddr: 0x3948, symBinAddr: 0x1000042A0, symSize: 0x14 }
  - { offsetInCU: 0xD1C3, offset: 0xD1C3, size: 0x8, addend: 0x0, symName: __ZNSt3__19allocatorIPcE10deallocateB7v160006EPS1_m, symObjAddr: 0x395C, symBinAddr: 0x1000042B4, symSize: 0x4C }
  - { offsetInCU: 0xD205, offset: 0xD205, size: 0x8, addend: 0x0, symName: __ZNSt3__117__compressed_pairIPPcNS_9allocatorIS1_EEE6secondB7v160006Ev, symObjAddr: 0x39A8, symBinAddr: 0x100004300, symSize: 0x24 }
  - { offsetInCU: 0xD22B, offset: 0xD22B, size: 0x8, addend: 0x0, symName: __ZNSt3__122__compressed_pair_elemINS_9allocatorIPcEELi1ELb1EE5__getB7v160006Ev, symObjAddr: 0x39CC, symBinAddr: 0x100004324, symSize: 0x14 }
  - { offsetInCU: 0xD251, offset: 0xD251, size: 0x8, addend: 0x0, symName: __ZNKSt3__114__split_bufferIPcNS_9allocatorIS1_EEE9__end_capB7v160006Ev, symObjAddr: 0x39E0, symBinAddr: 0x100004338, symSize: 0x28 }
  - { offsetInCU: 0xD277, offset: 0xD277, size: 0x8, addend: 0x0, symName: __ZNKSt3__117__compressed_pairIPPcNS_9allocatorIS1_EEE5firstB7v160006Ev, symObjAddr: 0x3A08, symBinAddr: 0x100004360, symSize: 0x24 }
  - { offsetInCU: 0xD29D, offset: 0xD29D, size: 0x8, addend: 0x0, symName: __ZNKSt3__122__compressed_pair_elemIPPcLi0ELb0EE5__getB7v160006Ev, symObjAddr: 0x3A2C, symBinAddr: 0x100004384, symSize: 0x14 }
  - { offsetInCU: 0xD2C3, offset: 0xD2C3, size: 0x8, addend: 0x0, symName: __ZNSt3__112basic_stringIcNS_11char_traitsIcEENS_9allocatorIcEEEC2B7v160006Ev, symObjAddr: 0x3A40, symBinAddr: 0x100004398, symSize: 0x218 }
  - { offsetInCU: 0xD2F3, offset: 0xD2F3, size: 0x8, addend: 0x0, symName: __ZNSt3__117__compressed_pairINS_12basic_stringIcNS_11char_traitsIcEENS_9allocatorIcEEE5__repES5_EC1B7v160006INS_18__default_init_tagESA_EEOT_OT0_, symObjAddr: 0x3C58, symBinAddr: 0x1000045B0, symSize: 0x3C }
  - { offsetInCU: 0xD34B, offset: 0xD34B, size: 0x8, addend: 0x0, symName: __ZNSt3__112basic_stringIcNS_11char_traitsIcEENS_9allocatorIcEEE14__default_initB7v160006Ev, symObjAddr: 0x3CA4, symBinAddr: 0x1000045FC, symSize: 0x22C }
  - { offsetInCU: 0xD372, offset: 0xD372, size: 0x8, addend: 0x0, symName: __ZNSt3__117__compressed_pairINS_12basic_stringIcNS_11char_traitsIcEENS_9allocatorIcEEE5__repES5_EC2B7v160006INS_18__default_init_tagESA_EEOT_OT0_, symObjAddr: 0x3ED0, symBinAddr: 0x100004828, symSize: 0x3C }
  - { offsetInCU: 0xD3CA, offset: 0xD3CA, size: 0x8, addend: 0x0, symName: __ZNSt3__122__compressed_pair_elemINS_12basic_stringIcNS_11char_traitsIcEENS_9allocatorIcEEE5__repELi0ELb0EEC2B7v160006ENS_18__default_init_tagE, symObjAddr: 0x3F0C, symBinAddr: 0x100004864, symSize: 0x14 }
  - { offsetInCU: 0xD3FE, offset: 0xD3FE, size: 0x8, addend: 0x0, symName: __ZNSt3__122__compressed_pair_elemINS_9allocatorIcEELi1ELb1EEC2B7v160006ENS_18__default_init_tagE, symObjAddr: 0x3F20, symBinAddr: 0x100004878, symSize: 0x2C }
  - { offsetInCU: 0xD432, offset: 0xD432, size: 0x8, addend: 0x0, symName: __ZNSt3__19allocatorIcEC2B7v160006Ev, symObjAddr: 0x3F4C, symBinAddr: 0x1000048A4, symSize: 0x2C }
  - { offsetInCU: 0xD45C, offset: 0xD45C, size: 0x8, addend: 0x0, symName: __ZNSt3__116__non_trivial_ifILb1ENS_9allocatorIcEEEC2B7v160006Ev, symObjAddr: 0x3F78, symBinAddr: 0x1000048D0, symSize: 0x14 }
  - { offsetInCU: 0xD486, offset: 0xD486, size: 0x8, addend: 0x0, symName: __ZNSt3__117__compressed_pairINS_12basic_stringIcNS_11char_traitsIcEENS_9allocatorIcEEE5__repES5_E5firstB7v160006Ev, symObjAddr: 0x3F8C, symBinAddr: 0x1000048E4, symSize: 0x24 }
  - { offsetInCU: 0xD4AC, offset: 0xD4AC, size: 0x8, addend: 0x0, symName: __ZNSt3__122__compressed_pair_elemINS_12basic_stringIcNS_11char_traitsIcEENS_9allocatorIcEEE5__repELi0ELb0EE5__getB7v160006Ev, symObjAddr: 0x3FB0, symBinAddr: 0x100004908, symSize: 0x14 }
  - { offsetInCU: 0xD4D2, offset: 0xD4D2, size: 0x8, addend: 0x0, symName: __ZNSt3__15stackIcNS_5dequeIcNS_9allocatorIcEEEEEC2B7v160006Ev, symObjAddr: 0x3FC4, symBinAddr: 0x10000491C, symSize: 0x2C }
  - { offsetInCU: 0xD4FC, offset: 0xD4FC, size: 0x8, addend: 0x0, symName: __ZNSt3__15dequeIcNS_9allocatorIcEEEC1B7v160006Ev, symObjAddr: 0x3FF0, symBinAddr: 0x100004948, symSize: 0x2C }
  - { offsetInCU: 0xD526, offset: 0xD526, size: 0x8, addend: 0x0, symName: __ZNSt3__15dequeIcNS_9allocatorIcEEEC2B7v160006Ev, symObjAddr: 0x401C, symBinAddr: 0x100004974, symSize: 0x2C4 }
  - { offsetInCU: 0xD551, offset: 0xD551, size: 0x8, addend: 0x0, symName: __ZNSt3__114__split_bufferIPcNS_9allocatorIS1_EEEC1Ev, symObjAddr: 0x42E0, symBinAddr: 0x100004C38, symSize: 0x2C }
  - { offsetInCU: 0xD582, offset: 0xD582, size: 0x8, addend: 0x0, symName: __ZNSt3__117__compressed_pairImNS_9allocatorIcEEEC1B7v160006IiNS_18__default_init_tagEEEOT_OT0_, symObjAddr: 0x430C, symBinAddr: 0x100004C64, symSize: 0x3C }
  - { offsetInCU: 0xD5DA, offset: 0xD5DA, size: 0x8, addend: 0x0, symName: __ZNSt3__114__split_bufferIPcNS_9allocatorIS1_EEEC2Ev, symObjAddr: 0x4348, symBinAddr: 0x100004CA0, symSize: 0x320 }
  - { offsetInCU: 0xD60C, offset: 0xD60C, size: 0x8, addend: 0x0, symName: __ZNSt3__117__compressed_pairIPPcNS_9allocatorIS1_EEEC1B7v160006IDnNS_18__default_init_tagEEEOT_OT0_, symObjAddr: 0x4668, symBinAddr: 0x100004FC0, symSize: 0x3C }
  - { offsetInCU: 0xD664, offset: 0xD664, size: 0x8, addend: 0x0, symName: __ZNSt3__117__compressed_pairIPPcNS_9allocatorIS1_EEEC2B7v160006IDnNS_18__default_init_tagEEEOT_OT0_, symObjAddr: 0x46A4, symBinAddr: 0x100004FFC, symSize: 0x40 }
  - { offsetInCU: 0xD6BC, offset: 0xD6BC, size: 0x8, addend: 0x0, symName: __ZNSt3__122__compressed_pair_elemIPPcLi0ELb0EEC2B7v160006IDnvEEOT_, symObjAddr: 0x46E4, symBinAddr: 0x10000503C, symSize: 0x64 }
  - { offsetInCU: 0xD6FE, offset: 0xD6FE, size: 0x8, addend: 0x0, symName: __ZNSt3__122__compressed_pair_elemINS_9allocatorIPcEELi1ELb1EEC2B7v160006ENS_18__default_init_tagE, symObjAddr: 0x4748, symBinAddr: 0x1000050A0, symSize: 0x2C }
  - { offsetInCU: 0xD732, offset: 0xD732, size: 0x8, addend: 0x0, symName: __ZNSt3__19allocatorIPcEC2B7v160006Ev, symObjAddr: 0x4774, symBinAddr: 0x1000050CC, symSize: 0x2C }
  - { offsetInCU: 0xD75C, offset: 0xD75C, size: 0x8, addend: 0x0, symName: __ZNSt3__116__non_trivial_ifILb1ENS_9allocatorIPcEEEC2B7v160006Ev, symObjAddr: 0x47A0, symBinAddr: 0x1000050F8, symSize: 0x14 }
  - { offsetInCU: 0xD786, offset: 0xD786, size: 0x8, addend: 0x0, symName: __ZNSt3__117__compressed_pairImNS_9allocatorIcEEEC2B7v160006IiNS_18__default_init_tagEEEOT_OT0_, symObjAddr: 0x47B4, symBinAddr: 0x10000510C, symSize: 0x40 }
  - { offsetInCU: 0xD7DE, offset: 0xD7DE, size: 0x8, addend: 0x0, symName: __ZNSt3__122__compressed_pair_elemImLi0ELb0EEC2B7v160006IivEEOT_, symObjAddr: 0x47F4, symBinAddr: 0x10000514C, symSize: 0xD8 }
  - { offsetInCU: 0xD820, offset: 0xD820, size: 0x8, addend: 0x0, symName: __ZNKSt3__112basic_stringIcNS_11char_traitsIcEENS_9allocatorIcEEE4sizeB7v160006Ev, symObjAddr: 0x48CC, symBinAddr: 0x100005224, symSize: 0x54 }
  - { offsetInCU: 0xD846, offset: 0xD846, size: 0x8, addend: 0x0, symName: __ZNKSt3__112basic_stringIcNS_11char_traitsIcEENS_9allocatorIcEEE9__is_longB7v160006Ev, symObjAddr: 0x4920, symBinAddr: 0x100005278, symSize: 0xA4 }
  - { offsetInCU: 0xD86C, offset: 0xD86C, size: 0x8, addend: 0x0, symName: __ZNKSt3__112basic_stringIcNS_11char_traitsIcEENS_9allocatorIcEEE15__get_long_sizeB7v160006Ev, symObjAddr: 0x49C4, symBinAddr: 0x10000531C, symSize: 0x70 }
  - { offsetInCU: 0xD892, offset: 0xD892, size: 0x8, addend: 0x0, symName: __ZNKSt3__112basic_stringIcNS_11char_traitsIcEENS_9allocatorIcEEE16__get_short_sizeB7v160006Ev, symObjAddr: 0x4A34, symBinAddr: 0x10000538C, symSize: 0xA0 }
  - { offsetInCU: 0xD8B8, offset: 0xD8B8, size: 0x8, addend: 0x0, symName: __ZNKSt3__117__compressed_pairINS_12basic_stringIcNS_11char_traitsIcEENS_9allocatorIcEEE5__repES5_E5firstB7v160006Ev, symObjAddr: 0x4AD4, symBinAddr: 0x10000542C, symSize: 0x24 }
  - { offsetInCU: 0xD8DE, offset: 0xD8DE, size: 0x8, addend: 0x0, symName: __ZNKSt3__122__compressed_pair_elemINS_12basic_stringIcNS_11char_traitsIcEENS_9allocatorIcEEE5__repELi0ELb0EE5__getB7v160006Ev, symObjAddr: 0x4AF8, symBinAddr: 0x100005450, symSize: 0x14 }
  - { offsetInCU: 0xD904, offset: 0xD904, size: 0x8, addend: 0x0, symName: __ZNSt3__112basic_stringIcNS_11char_traitsIcEENS_9allocatorIcEEE13__get_pointerB7v160006Ev, symObjAddr: 0x4B0C, symBinAddr: 0x100005464, symSize: 0x54 }
  - { offsetInCU: 0xD92A, offset: 0xD92A, size: 0x8, addend: 0x0, symName: __ZNSt3__112basic_stringIcNS_11char_traitsIcEENS_9allocatorIcEEE18__get_long_pointerB7v160006Ev, symObjAddr: 0x4B60, symBinAddr: 0x1000054B8, symSize: 0x6C }
  - { offsetInCU: 0xD950, offset: 0xD950, size: 0x8, addend: 0x0, symName: __ZNSt3__112basic_stringIcNS_11char_traitsIcEENS_9allocatorIcEEE19__get_short_pointerB7v160006Ev, symObjAddr: 0x4BCC, symBinAddr: 0x100005524, symSize: 0x28 }
  - { offsetInCU: 0xD976, offset: 0xD976, size: 0x8, addend: 0x0, symName: __ZNSt3__114pointer_traitsIPcE10pointer_toB7v160006ERc, symObjAddr: 0x4BF4, symBinAddr: 0x10000554C, symSize: 0x14 }
  - { offsetInCU: 0xD999, offset: 0xD999, size: 0x8, addend: 0x0, symName: __ZNSt3__15dequeIcNS_9allocatorIcEEE9push_backEOc, symObjAddr: 0x4C08, symBinAddr: 0x100005560, symSize: 0x2C0 }
  - { offsetInCU: 0xD9E2, offset: 0xD9E2, size: 0x8, addend: 0x0, symName: __ZNKSt3__15dequeIcNS_9allocatorIcEEE12__back_spareB7v160006Ev, symObjAddr: 0x4EC8, symBinAddr: 0x100005820, symSize: 0x90 }
  - { offsetInCU: 0xDA08, offset: 0xDA08, size: 0x8, addend: 0x0, symName: __ZNSt3__15dequeIcNS_9allocatorIcEEE19__add_back_capacityEv, symObjAddr: 0x4F58, symBinAddr: 0x1000058B0, symSize: 0x9E4 }
  - { offsetInCU: 0xDACD, offset: 0xDACD, size: 0x8, addend: 0x0, symName: __ZNSt3__116allocator_traitsINS_9allocatorIcEEE9constructB7v160006IcJcEvEEvRS2_PT_DpOT0_, symObjAddr: 0x593C, symBinAddr: 0x100006294, symSize: 0x34 }
  - { offsetInCU: 0xDB24, offset: 0xDB24, size: 0x8, addend: 0x0, symName: __ZNKSt3__15dequeIcNS_9allocatorIcEEE10__capacityB7v160006Ev, symObjAddr: 0x5970, symBinAddr: 0x1000062C8, symSize: 0x60 }
  - { offsetInCU: 0xDB4A, offset: 0xDB4A, size: 0x8, addend: 0x0, symName: __ZNKSt3__15dequeIcNS_9allocatorIcEEE13__front_spareB7v160006Ev, symObjAddr: 0x59D0, symBinAddr: 0x100006328, symSize: 0x64 }
  - { offsetInCU: 0xDB70, offset: 0xDB70, size: 0x8, addend: 0x0, symName: __ZNSt3__114__split_bufferIPcNS_9allocatorIS1_EEE9push_backB7v160006ERKS1_, symObjAddr: 0x5A34, symBinAddr: 0x10000638C, symSize: 0xA3C }
  - { offsetInCU: 0xDBEF, offset: 0xDBEF, size: 0x8, addend: 0x0, symName: __ZNKSt3__114__split_bufferIPcNS_9allocatorIS1_EEE12__back_spareB7v160006Ev, symObjAddr: 0x6470, symBinAddr: 0x100006DC8, symSize: 0xC0 }
  - { offsetInCU: 0xDC15, offset: 0xDC15, size: 0x8, addend: 0x0, symName: __ZNSt3__114__split_bufferIPcNS_9allocatorIS1_EEE9push_backEOS1_, symObjAddr: 0x6530, symBinAddr: 0x100006E88, symSize: 0xA3C }
  - { offsetInCU: 0xDC94, offset: 0xDC94, size: 0x8, addend: 0x0, symName: __ZNSt3__116allocator_traitsINS_9allocatorIcEEE8allocateB7v160006ERS2_m, symObjAddr: 0x6F6C, symBinAddr: 0x1000078C4, symSize: 0x2C }
  - { offsetInCU: 0xDCC7, offset: 0xDCC7, size: 0x8, addend: 0x0, symName: __ZNSt3__114__split_bufferIPcNS_9allocatorIS1_EEE10push_frontEOS1_, symObjAddr: 0x6F98, symBinAddr: 0x1000078F0, symSize: 0xA40 }
  - { offsetInCU: 0xDD46, offset: 0xDD46, size: 0x8, addend: 0x0, symName: __ZNSt3__114__split_bufferIPcRNS_9allocatorIS1_EEEC1EmmS4_, symObjAddr: 0x7A04, symBinAddr: 0x10000835C, symSize: 0x44 }
  - { offsetInCU: 0xDDA1, offset: 0xDDA1, size: 0x8, addend: 0x0, symName: __ZNSt3__122__allocator_destructorINS_9allocatorIcEEEC1B7v160006ERS2_m, symObjAddr: 0x7A48, symBinAddr: 0x1000083A0, symSize: 0x3C }
  - { offsetInCU: 0xDE64, offset: 0xDE64, size: 0x8, addend: 0x0, symName: __ZNSt3__110unique_ptrIPcNS_22__allocator_destructorINS_9allocatorIcEEEEEC1B7v160006ILb1EvEES1_NS_16__dependent_typeINS_27__unique_ptr_deleter_sfinaeIS5_EEXT_EE20__good_rval_ref_typeE, symObjAddr: 0x7A84, symBinAddr: 0x1000083DC, symSize: 0x3C }
  - { offsetInCU: 0xDEB5, offset: 0xDEB5, size: 0x8, addend: 0x0, symName: __ZNSt3__114__split_bufferIPcRNS_9allocatorIS1_EEE9push_backEOS1_, symObjAddr: 0x7AC0, symBinAddr: 0x100008418, symSize: 0xA3C }
  - { offsetInCU: 0xDF34, offset: 0xDF34, size: 0x8, addend: 0x0, symName: __ZNKSt3__110unique_ptrIPcNS_22__allocator_destructorINS_9allocatorIcEEEEE3getB7v160006Ev, symObjAddr: 0x84FC, symBinAddr: 0x100008E54, symSize: 0x6C }
  - { offsetInCU: 0xDF5A, offset: 0xDF5A, size: 0x8, addend: 0x0, symName: __ZNSt3__110unique_ptrIPcNS_22__allocator_destructorINS_9allocatorIcEEEEE7releaseB7v160006Ev, symObjAddr: 0x8568, symBinAddr: 0x100008EC0, symSize: 0xB8 }
  - { offsetInCU: 0xDF8F, offset: 0xDF8F, size: 0x8, addend: 0x0, symName: __ZNSt3__114__split_bufferIPcRNS_9allocatorIS1_EEE10push_frontERKS1_, symObjAddr: 0x8620, symBinAddr: 0x100008F78, symSize: 0xA40 }
  - { offsetInCU: 0xE00E, offset: 0xE00E, size: 0x8, addend: 0x0, symName: __ZNSt3__114__split_bufferIPcNS_9allocatorIS1_EEE9__end_capB7v160006Ev, symObjAddr: 0x9194, symBinAddr: 0x100009AEC, symSize: 0x28 }
  - { offsetInCU: 0xE034, offset: 0xE034, size: 0x8, addend: 0x0, symName: __ZNSt3__114__split_bufferIPcRNS_9allocatorIS1_EEE9__end_capB7v160006Ev, symObjAddr: 0x91BC, symBinAddr: 0x100009B14, symSize: 0x28 }
  - { offsetInCU: 0xE05A, offset: 0xE05A, size: 0x8, addend: 0x0, symName: __ZNSt3__110unique_ptrIPcNS_22__allocator_destructorINS_9allocatorIcEEEEED1B7v160006Ev, symObjAddr: 0x91E4, symBinAddr: 0x100009B3C, symSize: 0x2C }
  - { offsetInCU: 0xE084, offset: 0xE084, size: 0x8, addend: 0x0, symName: __ZNSt3__114__split_bufferIPcRNS_9allocatorIS1_EEED1Ev, symObjAddr: 0x9210, symBinAddr: 0x100009B68, symSize: 0x2C }
  - { offsetInCU: 0xE0B0, offset: 0xE0B0, size: 0x8, addend: 0x0, symName: __ZNSt3__114__split_bufferIPcRNS_9allocatorIS1_EEE18__construct_at_endINS_13move_iteratorIPS1_EEEENS_9enable_ifIXsr27__is_cpp17_forward_iteratorIT_EE5valueEvE4typeESB_SB_, symObjAddr: 0x94A8, symBinAddr: 0x100009E00, symSize: 0x600 }
  - { offsetInCU: 0xE119, offset: 0xE119, size: 0x8, addend: 0x0, symName: __ZNSt3__113move_iteratorIPPcEC1B7v160006ES2_, symObjAddr: 0x9AA8, symBinAddr: 0x10000A400, symSize: 0x34 }
  - { offsetInCU: 0xE151, offset: 0xE151, size: 0x8, addend: 0x0, symName: __ZNSt3__116allocator_traitsINS_9allocatorIPcEEE9constructB7v160006IS2_JRKS2_EvEEvRS3_PT_DpOT0_, symObjAddr: 0x9ADC, symBinAddr: 0x10000A434, symSize: 0x34 }
  - { offsetInCU: 0xE1CB, offset: 0xE1CB, size: 0x8, addend: 0x0, symName: __ZNKSt3__114__move_trivialclB7v160006IPcS2_Li0EEENS_4pairIPT_PT0_EES5_S5_S7_, symObjAddr: 0xA85C, symBinAddr: 0x10000B1B4, symSize: 0x230 }
  - { offsetInCU: 0xE23C, offset: 0xE23C, size: 0x8, addend: 0x0, symName: __ZNSt3__14pairIPPcS2_EC1B7v160006IRS2_S2_LPv0EEEOT_OT0_, symObjAddr: 0xB2F4, symBinAddr: 0x10000BC4C, symSize: 0x3C }
  - { offsetInCU: 0xE29A, offset: 0xE29A, size: 0x8, addend: 0x0, symName: __ZNSt3__14pairIPPcS2_EC2B7v160006IRS2_S2_LPv0EEEOT_OT0_, symObjAddr: 0xB330, symBinAddr: 0x10000BC88, symSize: 0x138 }
  - { offsetInCU: 0xE2F8, offset: 0xE2F8, size: 0x8, addend: 0x0, symName: __ZNSt3__118__unwrap_iter_implIPPcLb1EE8__unwrapB7v160006ES2_, symObjAddr: 0xB468, symBinAddr: 0x10000BDC0, symSize: 0x24 }
  - { offsetInCU: 0xE31B, offset: 0xE31B, size: 0x8, addend: 0x0, symName: __ZNSt3__14pairIPPcS2_EC1B7v160006IS2_S2_LPv0EEEOT_OT0_, symObjAddr: 0xB48C, symBinAddr: 0x10000BDE4, symSize: 0x3C }
  - { offsetInCU: 0xE379, offset: 0xE379, size: 0x8, addend: 0x0, symName: __ZNSt3__14pairIPPcS2_EC2B7v160006IS2_S2_LPv0EEEOT_OT0_, symObjAddr: 0xB4C8, symBinAddr: 0x10000BE20, symSize: 0x138 }
  - { offsetInCU: 0xE3D7, offset: 0xE3D7, size: 0x8, addend: 0x0, symName: __ZNSt3__118__unwrap_iter_implIPPcLb1EE8__rewrapB7v160006ES2_S2_, symObjAddr: 0xB600, symBinAddr: 0x10000BF58, symSize: 0x50 }
  - { offsetInCU: 0xE412, offset: 0xE412, size: 0x8, addend: 0x0, symName: __ZNSt3__114__split_bufferIPcRNS_9allocatorIS1_EEE21_ConstructTransactionC1B7v160006EPPS1_m, symObjAddr: 0xB9A0, symBinAddr: 0x10000C2F8, symSize: 0x3C }
  - { offsetInCU: 0xE458, offset: 0xE458, size: 0x8, addend: 0x0, symName: __ZNSt3__116allocator_traitsINS_9allocatorIPcEEE9constructB7v160006IS2_JS2_EvEEvRS3_PT_DpOT0_, symObjAddr: 0xB9DC, symBinAddr: 0x10000C334, symSize: 0x34 }
  - { offsetInCU: 0xE4AF, offset: 0xE4AF, size: 0x8, addend: 0x0, symName: __ZNSt3__114__split_bufferIPcRNS_9allocatorIS1_EEE7__allocB7v160006Ev, symObjAddr: 0xBA10, symBinAddr: 0x10000C368, symSize: 0x28 }
  - { offsetInCU: 0xE4D5, offset: 0xE4D5, size: 0x8, addend: 0x0, symName: __ZNKSt3__113move_iteratorIPPcEdeB7v160006Ev, symObjAddr: 0xBA38, symBinAddr: 0x10000C390, symSize: 0x60 }
  - { offsetInCU: 0xE4FB, offset: 0xE4FB, size: 0x8, addend: 0x0, symName: __ZNSt3__113move_iteratorIPPcEppB7v160006Ev, symObjAddr: 0xBA98, symBinAddr: 0x10000C3F0, symSize: 0x68 }
  - { offsetInCU: 0xE521, offset: 0xE521, size: 0x8, addend: 0x0, symName: __ZNSt3__114__split_bufferIPcRNS_9allocatorIS1_EEE21_ConstructTransactionD1B7v160006Ev, symObjAddr: 0xBB00, symBinAddr: 0x10000C458, symSize: 0x2C }
  - { offsetInCU: 0xE54B, offset: 0xE54B, size: 0x8, addend: 0x0, symName: __ZNKSt3__113move_iteratorIPPcE4baseB7v160006Ev, symObjAddr: 0xBDE8, symBinAddr: 0x10000C740, symSize: 0x60 }
  - { offsetInCU: 0xE571, offset: 0xE571, size: 0x8, addend: 0x0, symName: __ZNSt3__114__split_bufferIPcRNS_9allocatorIS1_EEE21_ConstructTransactionC2B7v160006EPPS1_m, symObjAddr: 0xBE48, symBinAddr: 0x10000C7A0, symSize: 0x184 }
  - { offsetInCU: 0xE5B7, offset: 0xE5B7, size: 0x8, addend: 0x0, symName: __ZNSt3__19allocatorIPcE9constructB7v160006IS1_JS1_EEEvPT_DpOT0_, symObjAddr: 0xBFCC, symBinAddr: 0x10000C924, symSize: 0xB4 }
  - { offsetInCU: 0xE60D, offset: 0xE60D, size: 0x8, addend: 0x0, symName: __ZNSt3__117__compressed_pairIPPcRNS_9allocatorIS1_EEE6secondB7v160006Ev, symObjAddr: 0xC080, symBinAddr: 0x10000C9D8, symSize: 0x28 }
  - { offsetInCU: 0xE633, offset: 0xE633, size: 0x8, addend: 0x0, symName: __ZNSt3__122__compressed_pair_elemIRNS_9allocatorIPcEELi1ELb0EE5__getB7v160006Ev, symObjAddr: 0xC0A8, symBinAddr: 0x10000CA00, symSize: 0x60 }
  - { offsetInCU: 0xE659, offset: 0xE659, size: 0x8, addend: 0x0, symName: __ZNSt3__114__split_bufferIPcRNS_9allocatorIS1_EEE21_ConstructTransactionD2B7v160006Ev, symObjAddr: 0xC108, symBinAddr: 0x10000CA60, symSize: 0xE0 }
  - { offsetInCU: 0xE683, offset: 0xE683, size: 0x8, addend: 0x0, symName: __ZNSt3__113move_iteratorIPPcEC2B7v160006ES2_, symObjAddr: 0xC1E8, symBinAddr: 0x10000CB40, symSize: 0x70 }
  - { offsetInCU: 0xE6BB, offset: 0xE6BB, size: 0x8, addend: 0x0, symName: __ZNSt3__19allocatorIPcE9constructB7v160006IS1_JRKS1_EEEvPT_DpOT0_, symObjAddr: 0xC258, symBinAddr: 0x10000CBB0, symSize: 0xB4 }
  - { offsetInCU: 0xE711, offset: 0xE711, size: 0x8, addend: 0x0, symName: __ZNSt3__19allocatorIcE8allocateB7v160006Em, symObjAddr: 0xC30C, symBinAddr: 0x10000CC64, symSize: 0x5C }
  - { offsetInCU: 0xE74F, offset: 0xE74F, size: 0x8, addend: 0x0, symName: __ZNSt3__116allocator_traitsINS_9allocatorIcEEE8max_sizeB7v160006IS2_vEEmRKS2_, symObjAddr: 0xC368, symBinAddr: 0x10000CCC0, symSize: 0x24 }
  - { offsetInCU: 0xE77D, offset: 0xE77D, size: 0x8, addend: 0x0, symName: __ZNKSt3__19allocatorIcE8max_sizeB7v160006Ev, symObjAddr: 0xC424, symBinAddr: 0x10000CD7C, symSize: 0x14 }
  - { offsetInCU: 0xE7AD, offset: 0xE7AD, size: 0x8, addend: 0x0, symName: __ZNKSt3__123__move_backward_trivialclB7v160006IPcS2_Li0EEENS_4pairIPT_PT0_EES5_S5_S7_, symObjAddr: 0xD0F0, symBinAddr: 0x10000DA48, symSize: 0x230 }
  - { offsetInCU: 0xE819, offset: 0xE819, size: 0x8, addend: 0x0, symName: __ZNSt3__14pairIPPcS2_EC1B7v160006IRS2_S5_LPv0EEEOT_OT0_, symObjAddr: 0xD90C, symBinAddr: 0x10000E264, symSize: 0x3C }
  - { offsetInCU: 0xE877, offset: 0xE877, size: 0x8, addend: 0x0, symName: __ZNSt3__14pairIPPcS2_EC2B7v160006IRS2_S5_LPv0EEEOT_OT0_, symObjAddr: 0xD948, symBinAddr: 0x10000E2A0, symSize: 0x138 }
  - { offsetInCU: 0xE8DF, offset: 0xE8DF, size: 0x8, addend: 0x0, symName: __ZNKSt3__16__lessImmEclB7v160006ERKmS3_, symObjAddr: 0xDC68, symBinAddr: 0x10000E5C0, symSize: 0xBC }
  - { offsetInCU: 0xE921, offset: 0xE921, size: 0x8, addend: 0x0, symName: __ZNSt3__114__split_bufferIPcRNS_9allocatorIS1_EEEC2EmmS4_, symObjAddr: 0xDD24, symBinAddr: 0x10000E67C, symSize: 0x520 }
  - { offsetInCU: 0xE99C, offset: 0xE99C, size: 0x8, addend: 0x0, symName: __ZNSt3__117__compressed_pairIPPcRNS_9allocatorIS1_EEEC1B7v160006IDnS5_EEOT_OT0_, symObjAddr: 0xE244, symBinAddr: 0x10000EB9C, symSize: 0x3C }
  - { offsetInCU: 0xE9F4, offset: 0xE9F4, size: 0x8, addend: 0x0, symName: __ZNSt3__117__compressed_pairIPPcRNS_9allocatorIS1_EEEC2B7v160006IDnS5_EEOT_OT0_, symObjAddr: 0xE50C, symBinAddr: 0x10000EE64, symSize: 0x48 }
  - { offsetInCU: 0xEA4C, offset: 0xEA4C, size: 0x8, addend: 0x0, symName: __ZNSt3__122__compressed_pair_elemIRNS_9allocatorIPcEELi1ELb0EEC2B7v160006IS4_vEEOT_, symObjAddr: 0xE554, symBinAddr: 0x10000EEAC, symSize: 0x70 }
  - { offsetInCU: 0xEA8E, offset: 0xEA8E, size: 0x8, addend: 0x0, symName: __ZNSt3__19allocatorIPcE8allocateB7v160006Em, symObjAddr: 0xE5C4, symBinAddr: 0x10000EF1C, symSize: 0x5C }
  - { offsetInCU: 0xEACC, offset: 0xEACC, size: 0x8, addend: 0x0, symName: __ZNSt3__116allocator_traitsINS_9allocatorIPcEEE8max_sizeB7v160006IS3_vEEmRKS3_, symObjAddr: 0xE620, symBinAddr: 0x10000EF78, symSize: 0x24 }
  - { offsetInCU: 0xEAFA, offset: 0xEAFA, size: 0x8, addend: 0x0, symName: __ZNKSt3__19allocatorIPcE8max_sizeB7v160006Ev, symObjAddr: 0xE644, symBinAddr: 0x10000EF9C, symSize: 0x14 }
  - { offsetInCU: 0xEB20, offset: 0xEB20, size: 0x8, addend: 0x0, symName: __ZNSt3__122__allocator_destructorINS_9allocatorIcEEEC2B7v160006ERS2_m, symObjAddr: 0xE658, symBinAddr: 0x10000EFB0, symSize: 0xBC }
  - { offsetInCU: 0xEB66, offset: 0xEB66, size: 0x8, addend: 0x0, symName: __ZNSt3__110unique_ptrIPcNS_22__allocator_destructorINS_9allocatorIcEEEEEC2B7v160006ILb1EvEES1_NS_16__dependent_typeINS_27__unique_ptr_deleter_sfinaeIS5_EEXT_EE20__good_rval_ref_typeE, symObjAddr: 0xE714, symBinAddr: 0x10000F06C, symSize: 0x21C }
  - { offsetInCU: 0xEBBD, offset: 0xEBBD, size: 0x8, addend: 0x0, symName: __ZNSt3__117__compressed_pairIPcNS_22__allocator_destructorINS_9allocatorIcEEEEEC1B7v160006IRS1_S5_EEOT_OT0_, symObjAddr: 0xE930, symBinAddr: 0x10000F288, symSize: 0x3C }
  - { offsetInCU: 0xEC15, offset: 0xEC15, size: 0x8, addend: 0x0, symName: __ZNSt3__117__compressed_pairIPcNS_22__allocator_destructorINS_9allocatorIcEEEEEC2B7v160006IRS1_S5_EEOT_OT0_, symObjAddr: 0xE96C, symBinAddr: 0x10000F2C4, symSize: 0x48 }
  - { offsetInCU: 0xEC6D, offset: 0xEC6D, size: 0x8, addend: 0x0, symName: __ZNSt3__122__compressed_pair_elemIPcLi0ELb0EEC2B7v160006IRS1_vEEOT_, symObjAddr: 0xE9B4, symBinAddr: 0x10000F30C, symSize: 0xB0 }
  - { offsetInCU: 0xECAF, offset: 0xECAF, size: 0x8, addend: 0x0, symName: __ZNSt3__122__compressed_pair_elemINS_22__allocator_destructorINS_9allocatorIcEEEELi1ELb0EEC2B7v160006IS4_vEEOT_, symObjAddr: 0xEA64, symBinAddr: 0x10000F3BC, symSize: 0x38 }
  - { offsetInCU: 0xECF1, offset: 0xECF1, size: 0x8, addend: 0x0, symName: __ZNKSt3__117__compressed_pairIPcNS_22__allocator_destructorINS_9allocatorIcEEEEE5firstB7v160006Ev, symObjAddr: 0xEA9C, symBinAddr: 0x10000F3F4, symSize: 0x24 }
  - { offsetInCU: 0xED17, offset: 0xED17, size: 0x8, addend: 0x0, symName: __ZNKSt3__122__compressed_pair_elemIPcLi0ELb0EE5__getB7v160006Ev, symObjAddr: 0xEAC0, symBinAddr: 0x10000F418, symSize: 0x14 }
  - { offsetInCU: 0xED3D, offset: 0xED3D, size: 0x8, addend: 0x0, symName: __ZNSt3__117__compressed_pairIPcNS_22__allocator_destructorINS_9allocatorIcEEEEE5firstB7v160006Ev, symObjAddr: 0xEAD4, symBinAddr: 0x10000F42C, symSize: 0x24 }
  - { offsetInCU: 0xED63, offset: 0xED63, size: 0x8, addend: 0x0, symName: __ZNSt3__122__compressed_pair_elemIPcLi0ELb0EE5__getB7v160006Ev, symObjAddr: 0xEAF8, symBinAddr: 0x10000F450, symSize: 0x14 }
  - { offsetInCU: 0xED89, offset: 0xED89, size: 0x8, addend: 0x0, symName: __ZNSt3__117__compressed_pairIPPcNS_9allocatorIS1_EEE5firstB7v160006Ev, symObjAddr: 0xEB0C, symBinAddr: 0x10000F464, symSize: 0x24 }
  - { offsetInCU: 0xEDAF, offset: 0xEDAF, size: 0x8, addend: 0x0, symName: __ZNSt3__122__compressed_pair_elemIPPcLi0ELb0EE5__getB7v160006Ev, symObjAddr: 0xEB30, symBinAddr: 0x10000F488, symSize: 0x14 }
  - { offsetInCU: 0xEDD5, offset: 0xEDD5, size: 0x8, addend: 0x0, symName: __ZNSt3__117__compressed_pairIPPcRNS_9allocatorIS1_EEE5firstB7v160006Ev, symObjAddr: 0xEB44, symBinAddr: 0x10000F49C, symSize: 0x24 }
  - { offsetInCU: 0xEDFB, offset: 0xEDFB, size: 0x8, addend: 0x0, symName: __ZNSt3__110unique_ptrIPcNS_22__allocator_destructorINS_9allocatorIcEEEEED2B7v160006Ev, symObjAddr: 0xEB68, symBinAddr: 0x10000F4C0, symSize: 0x30 }
  - { offsetInCU: 0xEE25, offset: 0xEE25, size: 0x8, addend: 0x0, symName: __ZNSt3__110unique_ptrIPcNS_22__allocator_destructorINS_9allocatorIcEEEEE5resetB7v160006ES1_, symObjAddr: 0xEB98, symBinAddr: 0x10000F4F0, symSize: 0xEC }
  - { offsetInCU: 0xEE69, offset: 0xEE69, size: 0x8, addend: 0x0, symName: __ZNSt3__117__compressed_pairIPcNS_22__allocator_destructorINS_9allocatorIcEEEEE6secondB7v160006Ev, symObjAddr: 0xEC84, symBinAddr: 0x10000F5DC, symSize: 0x28 }
  - { offsetInCU: 0xEE8F, offset: 0xEE8F, size: 0x8, addend: 0x0, symName: __ZNSt3__122__allocator_destructorINS_9allocatorIcEEEclB7v160006EPc, symObjAddr: 0xECAC, symBinAddr: 0x10000F604, symSize: 0xB8 }
  - { offsetInCU: 0xEEC3, offset: 0xEEC3, size: 0x8, addend: 0x0, symName: __ZNSt3__122__compressed_pair_elemINS_22__allocator_destructorINS_9allocatorIcEEEELi1ELb0EE5__getB7v160006Ev, symObjAddr: 0xED64, symBinAddr: 0x10000F6BC, symSize: 0x14 }
  - { offsetInCU: 0xEEE9, offset: 0xEEE9, size: 0x8, addend: 0x0, symName: __ZNSt3__114__split_bufferIPcRNS_9allocatorIS1_EEED2Ev, symObjAddr: 0xED78, symBinAddr: 0x10000F6D0, symSize: 0x104 }
  - { offsetInCU: 0xEF15, offset: 0xEF15, size: 0x8, addend: 0x0, symName: __ZNSt3__114__split_bufferIPcRNS_9allocatorIS1_EEE5clearB7v160006Ev, symObjAddr: 0xEE7C, symBinAddr: 0x10000F7D4, symSize: 0x68 }
  - { offsetInCU: 0xEF3B, offset: 0xEF3B, size: 0x8, addend: 0x0, symName: __ZNKSt3__114__split_bufferIPcRNS_9allocatorIS1_EEE8capacityB7v160006Ev, symObjAddr: 0xEEE4, symBinAddr: 0x10000F83C, symSize: 0xBC }
  - { offsetInCU: 0xEF61, offset: 0xEF61, size: 0x8, addend: 0x0, symName: __ZNSt3__114__split_bufferIPcRNS_9allocatorIS1_EEE17__destruct_at_endB7v160006EPS1_, symObjAddr: 0xEFA0, symBinAddr: 0x10000F8F8, symSize: 0x2C }
  - { offsetInCU: 0xEF95, offset: 0xEF95, size: 0x8, addend: 0x0, symName: __ZNSt3__114__split_bufferIPcRNS_9allocatorIS1_EEE17__destruct_at_endB7v160006EPS1_NS_17integral_constantIbLb0EEE, symObjAddr: 0xEFCC, symBinAddr: 0x10000F924, symSize: 0x10C }
  - { offsetInCU: 0xEFD5, offset: 0xEFD5, size: 0x8, addend: 0x0, symName: __ZNKSt3__114__split_bufferIPcRNS_9allocatorIS1_EEE9__end_capB7v160006Ev, symObjAddr: 0xF0D8, symBinAddr: 0x10000FA30, symSize: 0x28 }
  - { offsetInCU: 0xEFFB, offset: 0xEFFB, size: 0x8, addend: 0x0, symName: __ZNKSt3__117__compressed_pairIPPcRNS_9allocatorIS1_EEE5firstB7v160006Ev, symObjAddr: 0xF100, symBinAddr: 0x10000FA58, symSize: 0x24 }
  - { offsetInCU: 0xF021, offset: 0xF021, size: 0x8, addend: 0x0, symName: __ZNSt3__19allocatorIcE9constructB7v160006IcJcEEEvPT_DpOT0_, symObjAddr: 0xF124, symBinAddr: 0x10000FA7C, symSize: 0xFC }
  - { offsetInCU: 0xF077, offset: 0xF077, size: 0x8, addend: 0x0, symName: __ZNSt3__15dequeIcNS_9allocatorIcEEE4backEv, symObjAddr: 0xF220, symBinAddr: 0x10000FB78, symSize: 0xEC }
  - { offsetInCU: 0xF0AE, offset: 0xF0AE, size: 0x8, addend: 0x0, symName: __ZNSt3__15dequeIcNS_9allocatorIcEEE8pop_backEv, symObjAddr: 0xF30C, symBinAddr: 0x10000FC64, symSize: 0x16C }
  - { offsetInCU: 0xF0F4, offset: 0xF0F4, size: 0x8, addend: 0x0, symName: __ZNSt3__15dequeIcNS_9allocatorIcEEE25__maybe_remove_back_spareB7v160006Eb, symObjAddr: 0xF48C, symBinAddr: 0x10000FDE4, symSize: 0x10C }
  - { offsetInCU: 0xF129, offset: 0xF129, size: 0x8, addend: 0x0, symName: __ZNKSt3__15dequeIcNS_9allocatorIcEEE19__back_spare_blocksB7v160006Ev, symObjAddr: 0xF598, symBinAddr: 0x10000FEF0, symSize: 0x2C }
  - { offsetInCU: 0xF14F, offset: 0xF14F, size: 0x8, addend: 0x0, symName: __ZNSt3__114__split_bufferIPcNS_9allocatorIS1_EEE4backB7v160006Ev, symObjAddr: 0xF5C4, symBinAddr: 0x10000FF1C, symSize: 0x68 }
  - { offsetInCU: 0xF175, offset: 0xF175, size: 0x8, addend: 0x0, symName: __ZNSt3__114__split_bufferIPcNS_9allocatorIS1_EEE8pop_backB7v160006Ev, symObjAddr: 0xF62C, symBinAddr: 0x10000FF84, symSize: 0x6C }
  - { offsetInCU: 0xF19B, offset: 0xF19B, size: 0x8, addend: 0x0, symName: __ZNKSt3__15dequeIcNS_9allocatorIcEEE5emptyB7v160006Ev, symObjAddr: 0xF698, symBinAddr: 0x10000FFF0, symSize: 0x30 }
  - { offsetInCU: 0xF1C1, offset: 0xF1C1, size: 0x8, addend: 0x0, symName: __ZNSt3__15dequeIcNS_9allocatorIcEEE9push_backERKc, symObjAddr: 0xF6C8, symBinAddr: 0x100010020, symSize: 0x2C0 }
  - { offsetInCU: 0xF20A, offset: 0xF20A, size: 0x8, addend: 0x0, symName: __ZNSt3__116allocator_traitsINS_9allocatorIcEEE9constructB7v160006IcJRKcEvEEvRS2_PT_DpOT0_, symObjAddr: 0xF988, symBinAddr: 0x1000102E0, symSize: 0x34 }
  - { offsetInCU: 0xF261, offset: 0xF261, size: 0x8, addend: 0x0, symName: __ZNSt3__19allocatorIcE9constructB7v160006IcJRKcEEEvPT_DpOT0_, symObjAddr: 0xF9BC, symBinAddr: 0x100010314, symSize: 0xFC }
  - { offsetInCU: 0xF359, offset: 0xF359, size: 0x8, addend: 0x0, symName: __ZNKSt3__113basic_istreamIcNS_11char_traitsIcEEE6sentrycvbB7v160006Ev, symObjAddr: 0xFAB8, symBinAddr: 0x100010410, symSize: 0x88 }
  - { offsetInCU: 0xF37F, offset: 0xF37F, size: 0x8, addend: 0x0, symName: __ZNSt3__112basic_stringIcNS_11char_traitsIcEENS_9allocatorIcEEE5clearB7v160006Ev, symObjAddr: 0xFB40, symBinAddr: 0x100010498, symSize: 0x328 }
  - { offsetInCU: 0xF3A8, offset: 0xF3A8, size: 0x8, addend: 0x0, symName: __ZNKSt3__18ios_base5widthB7v160006Ev, symObjAddr: 0xFE68, symBinAddr: 0x1000107C0, symSize: 0x64 }
  - { offsetInCU: 0xF3D0, offset: 0xF3D0, size: 0x8, addend: 0x0, symName: __ZNKSt3__112basic_stringIcNS_11char_traitsIcEENS_9allocatorIcEEE8max_sizeB7v160006Ev, symObjAddr: 0xFECC, symBinAddr: 0x100010824, symSize: 0xBC }
  - { offsetInCU: 0xF422, offset: 0xF422, size: 0x8, addend: 0x0, symName: __ZNSt3__114numeric_limitsIlE3maxB7v160006Ev, symObjAddr: 0xFF88, symBinAddr: 0x1000108E0, symSize: 0x14 }
  - { offsetInCU: 0xF436, offset: 0xF436, size: 0x8, addend: 0x0, symName: __ZNKSt3__19basic_iosIcNS_11char_traitsIcEEE5rdbufB7v160006Ev, symObjAddr: 0xFFC8, symBinAddr: 0x100010920, symSize: 0x24 }
  - { offsetInCU: 0xF45E, offset: 0xF45E, size: 0x8, addend: 0x0, symName: __ZNSt3__115basic_streambufIcNS_11char_traitsIcEEE5sgetcB7v160006Ev, symObjAddr: 0xFFEC, symBinAddr: 0x100010944, symSize: 0x1E4 }
  - { offsetInCU: 0xF484, offset: 0xF484, size: 0x8, addend: 0x0, symName: __ZNSt3__111char_traitsIcE11eq_int_typeEii, symObjAddr: 0x101D0, symBinAddr: 0x100010B28, symSize: 0x28 }
  - { offsetInCU: 0xF4B5, offset: 0xF4B5, size: 0x8, addend: 0x0, symName: __ZNSt3__111char_traitsIcE3eofEv, symObjAddr: 0x101F8, symBinAddr: 0x100010B50, symSize: 0x8 }
  - { offsetInCU: 0xF4C9, offset: 0xF4C9, size: 0x8, addend: 0x0, symName: __ZNSt3__111char_traitsIcE12to_char_typeEi, symObjAddr: 0x10200, symBinAddr: 0x100010B58, symSize: 0x18 }
  - { offsetInCU: 0xF519, offset: 0xF519, size: 0x8, addend: 0x0, symName: __ZNKSt3__15ctypeIcE2isB7v160006Ejc, symObjAddr: 0x10218, symBinAddr: 0x100010B70, symSize: 0x120 }
  - { offsetInCU: 0xF55D, offset: 0xF55D, size: 0x8, addend: 0x0, symName: __ZNSt3__115basic_streambufIcNS_11char_traitsIcEEE6sbumpcB7v160006Ev, symObjAddr: 0x10338, symBinAddr: 0x100010C90, symSize: 0x1EC }
  - { offsetInCU: 0xF583, offset: 0xF583, size: 0x8, addend: 0x0, symName: __ZNSt3__18ios_base5widthB7v160006El, symObjAddr: 0x10524, symBinAddr: 0x100010E7C, symSize: 0xB8 }
  - { offsetInCU: 0xF5C9, offset: 0xF5C9, size: 0x8, addend: 0x0, symName: __ZNSt3__18ios_base18__setstate_nothrowB7v160006Ej, symObjAddr: 0x105DC, symBinAddr: 0x100010F34, symSize: 0x178 }
  - { offsetInCU: 0xF5FE, offset: 0xF5FE, size: 0x8, addend: 0x0, symName: __ZNKSt3__19basic_iosIcNS_11char_traitsIcEEE10exceptionsB7v160006Ev, symObjAddr: 0x10754, symBinAddr: 0x1000110AC, symSize: 0x24 }
  - { offsetInCU: 0xF624, offset: 0xF624, size: 0x8, addend: 0x0, symName: __ZNSt3__19basic_iosIcNS_11char_traitsIcEEE8setstateB7v160006Ej, symObjAddr: 0x10778, symBinAddr: 0x1000110D0, symSize: 0x2C }
  - { offsetInCU: 0xF659, offset: 0xF659, size: 0x8, addend: 0x0, symName: __ZNSt3__111char_traitsIcE6assignERcRKc, symObjAddr: 0x107B4, symBinAddr: 0x10001110C, symSize: 0xF4 }
  - { offsetInCU: 0xF68A, offset: 0xF68A, size: 0x8, addend: 0x0, symName: __ZNSt3__112basic_stringIcNS_11char_traitsIcEENS_9allocatorIcEEE15__set_long_sizeB7v160006Em, symObjAddr: 0x108A8, symBinAddr: 0x100011200, symSize: 0x80 }
  - { offsetInCU: 0xF6BF, offset: 0xF6BF, size: 0x8, addend: 0x0, symName: __ZNSt3__112basic_stringIcNS_11char_traitsIcEENS_9allocatorIcEEE16__set_short_sizeB7v160006Em, symObjAddr: 0x10928, symBinAddr: 0x100011280, symSize: 0x130 }
  - { offsetInCU: 0xF6F4, offset: 0xF6F4, size: 0x8, addend: 0x0, symName: __ZNKSt3__112basic_stringIcNS_11char_traitsIcEENS_9allocatorIcEEE7__allocB7v160006Ev, symObjAddr: 0x10A58, symBinAddr: 0x1000113B0, symSize: 0x24 }
  - { offsetInCU: 0xF71A, offset: 0xF71A, size: 0x8, addend: 0x0, symName: __ZNSt3__114numeric_limitsImE3maxB7v160006Ev, symObjAddr: 0x10A7C, symBinAddr: 0x1000113D4, symSize: 0x14 }
  - { offsetInCU: 0xF72E, offset: 0xF72E, size: 0x8, addend: 0x0, symName: __ZNKSt3__117__compressed_pairINS_12basic_stringIcNS_11char_traitsIcEENS_9allocatorIcEEE5__repES5_E6secondB7v160006Ev, symObjAddr: 0x10A90, symBinAddr: 0x1000113E8, symSize: 0x24 }
  - { offsetInCU: 0xF754, offset: 0xF754, size: 0x8, addend: 0x0, symName: __ZNKSt3__122__compressed_pair_elemINS_9allocatorIcEELi1ELb1EE5__getB7v160006Ev, symObjAddr: 0x10AB4, symBinAddr: 0x10001140C, symSize: 0x14 }
  - { offsetInCU: 0xF77A, offset: 0xF77A, size: 0x8, addend: 0x0, symName: __ZNSt3__123__libcpp_numeric_limitsImLb1EE3maxB7v160006Ev, symObjAddr: 0x10AC8, symBinAddr: 0x100011420, symSize: 0x8 }
  - { offsetInCU: 0xF78E, offset: 0xF78E, size: 0x8, addend: 0x0, symName: __ZNSt3__123__libcpp_numeric_limitsIlLb1EE3maxB7v160006Ev, symObjAddr: 0x10AD0, symBinAddr: 0x100011428, symSize: 0x8 }
  - { offsetInCU: 0xF7A2, offset: 0xF7A2, size: 0x8, addend: 0x0, symName: __ZNKSt3__18ios_base5rdbufB7v160006Ev, symObjAddr: 0x10AD8, symBinAddr: 0x100011430, symSize: 0x64 }
  - { offsetInCU: 0xF7C8, offset: 0xF7C8, size: 0x8, addend: 0x0, symName: __ZNSt3__111char_traitsIcE11to_int_typeEc, symObjAddr: 0x10B3C, symBinAddr: 0x100011494, symSize: 0x14 }
  - { offsetInCU: 0xF7EA, offset: 0xF7EA, size: 0x8, addend: 0x0, symName: __Z7isasciii, symObjAddr: 0x10B50, symBinAddr: 0x1000114A8, symSize: 0x24 }
  - { offsetInCU: 0xF817, offset: 0xF817, size: 0x8, addend: 0x0, symName: __ZNKSt3__18ios_base10exceptionsB7v160006Ev, symObjAddr: 0x10B74, symBinAddr: 0x1000114CC, symSize: 0x8C }
  - { offsetInCU: 0xF83F, offset: 0xF83F, size: 0x8, addend: 0x0, symName: __ZNSt3__18ios_base8setstateB7v160006Ej, symObjAddr: 0x10C00, symBinAddr: 0x100011558, symSize: 0x9C }
  - { offsetInCU: 0xF876, offset: 0xF876, size: 0x8, addend: 0x0, symName: __ZNKSt3__112basic_stringIcNS_11char_traitsIcEENS_9allocatorIcEEE4dataB7v160006Ev, symObjAddr: 0x113E0, symBinAddr: 0x100011D38, symSize: 0x28 }
  - { offsetInCU: 0xF8BA, offset: 0xF8BA, size: 0x8, addend: 0x0, symName: __ZNKSt3__113basic_ostreamIcNS_11char_traitsIcEEE6sentrycvbB7v160006Ev, symObjAddr: 0x11408, symBinAddr: 0x100011D60, symSize: 0x88 }
  - { offsetInCU: 0xF8E0, offset: 0xF8E0, size: 0x8, addend: 0x0, symName: __ZNSt3__119ostreambuf_iteratorIcNS_11char_traitsIcEEEC1B7v160006ERNS_13basic_ostreamIcS2_EE, symObjAddr: 0x11BF0, symBinAddr: 0x100012548, symSize: 0x34 }
  - { offsetInCU: 0xF918, offset: 0xF918, size: 0x8, addend: 0x0, symName: __ZNKSt3__18ios_base5flagsB7v160006Ev, symObjAddr: 0x11C24, symBinAddr: 0x10001257C, symSize: 0x8C }
  - { offsetInCU: 0xF940, offset: 0xF940, size: 0x8, addend: 0x0, symName: __ZNKSt3__19basic_iosIcNS_11char_traitsIcEEE4fillB7v160006Ev, symObjAddr: 0x11CB0, symBinAddr: 0x100012608, symSize: 0x198 }
  - { offsetInCU: 0xF968, offset: 0xF968, size: 0x8, addend: 0x0, symName: __ZNKSt3__119ostreambuf_iteratorIcNS_11char_traitsIcEEE6failedB7v160006Ev, symObjAddr: 0x11E48, symBinAddr: 0x1000127A0, symSize: 0x6C }
  - { offsetInCU: 0xF98E, offset: 0xF98E, size: 0x8, addend: 0x0, symName: __ZNSt3__115basic_streambufIcNS_11char_traitsIcEEE5sputnB7v160006EPKcl, symObjAddr: 0x11EB4, symBinAddr: 0x10001280C, symSize: 0xC8 }
  - { offsetInCU: 0xF9D0, offset: 0xF9D0, size: 0x8, addend: 0x0, symName: __ZNSt3__112basic_stringIcNS_11char_traitsIcEENS_9allocatorIcEEEC1B7v160006Emc, symObjAddr: 0x11F7C, symBinAddr: 0x1000128D4, symSize: 0x3C }
  - { offsetInCU: 0xFA18, offset: 0xFA18, size: 0x8, addend: 0x0, symName: __ZNSt3__112basic_stringIcNS_11char_traitsIcEENS_9allocatorIcEEE4dataB7v160006Ev, symObjAddr: 0x11FB8, symBinAddr: 0x100012910, symSize: 0x28 }
  - { offsetInCU: 0xFA3E, offset: 0xFA3E, size: 0x8, addend: 0x0, symName: __ZNSt3__112basic_stringIcNS_11char_traitsIcEENS_9allocatorIcEEEC2B7v160006Emc, symObjAddr: 0x11FE0, symBinAddr: 0x100012938, symSize: 0x20C }
  - { offsetInCU: 0xFA89, offset: 0xFA89, size: 0x8, addend: 0x0, symName: __ZNSt3__119ostreambuf_iteratorIcNS_11char_traitsIcEEEC2B7v160006ERNS_13basic_ostreamIcS2_EE, symObjAddr: 0x121EC, symBinAddr: 0x100012B44, symSize: 0x10C }
  - { offsetInCU: 0xFAC1, offset: 0xFAC1, size: 0x8, addend: 0x0, symName: __ZNKSt3__19basic_iosIcNS_11char_traitsIcEEE5widenB7v160006Ec, symObjAddr: 0x122F8, symBinAddr: 0x100012C50, symSize: 0x2A4 }
  - { offsetInCU: 0xFAFA, offset: 0xFAFA, size: 0x8, addend: 0x0, symName: __ZNKSt3__15ctypeIcE5widenB7v160006Ec, symObjAddr: 0x1259C, symBinAddr: 0x100012EF4, symSize: 0xBC }
  - { offsetInCU: 0xFB2F, offset: 0xFB2F, size: 0x8, addend: 0x0, symName: __ZNKSt3__112basic_stringIcNS_11char_traitsIcEENS_9allocatorIcEEE13__get_pointerB7v160006Ev, symObjAddr: 0x1266C, symBinAddr: 0x100012FC4, symSize: 0x54 }
  - { offsetInCU: 0xFB55, offset: 0xFB55, size: 0x8, addend: 0x0, symName: __ZNKSt3__112basic_stringIcNS_11char_traitsIcEENS_9allocatorIcEEE18__get_long_pointerB7v160006Ev, symObjAddr: 0x126C0, symBinAddr: 0x100013018, symSize: 0x6C }
  - { offsetInCU: 0xFB7B, offset: 0xFB7B, size: 0x8, addend: 0x0, symName: __ZNKSt3__112basic_stringIcNS_11char_traitsIcEENS_9allocatorIcEEE19__get_short_pointerB7v160006Ev, symObjAddr: 0x1272C, symBinAddr: 0x100013084, symSize: 0x28 }
  - { offsetInCU: 0xFBA1, offset: 0xFBA1, size: 0x8, addend: 0x0, symName: __ZNSt3__114pointer_traitsIPKcE10pointer_toB7v160006ERS1_, symObjAddr: 0x12754, symBinAddr: 0x1000130AC, symSize: 0x14 }
...
